target datalayout = "e-m:e-p270:32:32-p271:32:32-p272:64:64-i64:64-i128:128-f80:128-n8:16:32:64-S128"
target triple = "x86_64-unknown-linux-gnu"

%struct.SCSISense = type { i8, i8, i8 }
%struct.SCSIReqOps = type { i64, ptr, ptr, ptr, ptr, ptr, ptr, ptr, ptr }
%struct.SCSIDiskState = type { %struct.SCSIDevice, i32, i8, i8, i8, i16, i64, i64, i32, ptr, ptr, ptr, ptr, ptr, ptr, i8, i8, i16 }
%struct.SCSIDevice = type { %struct.DeviceState, ptr, ptr, i32, %struct.BlockConf, %struct.SCSISense, i8, [252 x i8], i32, %union.anon, i32, i32, i32, i32, i64, i64, i64, i32, i32, i32, i8, i8 }
%struct.DeviceState = type { %struct.Object, ptr, ptr, i8, i8, i64, ptr, i32, i8, ptr, %struct.NamedGPIOListHead, %struct.NamedClockListHead, %struct.BusStateHead, i32, i32, i32, %struct.ResettableState, ptr, %struct.MemReentrancyGuard }
%struct.Object = type { ptr, ptr, ptr, i32, ptr }
%struct.NamedGPIOListHead = type { ptr }
%struct.NamedClockListHead = type { ptr }
%struct.BusStateHead = type { ptr }
%struct.ResettableState = type { i32, i8, i8 }
%struct.MemReentrancyGuard = type { i8 }
%struct.BlockConf = type { ptr, i32, i32, i32, i32, i32, i32, i32, i32, i32, i32, i32, i32, i32, i32, i8, i32, i32, i32, i32 }
%union.anon = type { %struct.QTailQLink }
%struct.QTailQLink = type { ptr, ptr }
%struct.timeval = type { i64, i64 }

@.str.5 = private unnamed_addr constant [28 x i8] c"../qemu/hw/scsi/scsi-disk.c\00", align 1
@scsi_disk_emulate_reqops = internal constant %struct.SCSIReqOps { i64 512, ptr null, ptr @scsi_free_request, ptr @scsi_disk_emulate_command, ptr @scsi_disk_emulate_read_data, ptr @scsi_disk_emulate_write_data, ptr @scsi_get_buf, ptr null, ptr null }, align 8
@trace_events_enabled_count = external global i32, align 4
@_TRACE_SCSI_DISK_NEW_REQUEST_DSTATE = external global i16, align 2
@message_with_timestamp = external global i8, align 1
@qemu_loglevel = external global i32, align 4
@.str.91 = private unnamed_addr constant [21 x i8] c"len > 0 && len <= 16\00", align 1
@__PRETTY_FUNCTION__.scsi_disk_new_request_dump = private unnamed_addr constant [63 x i8] c"void scsi_disk_new_request_dump(uint32_t, uint32_t, uint8_t *)\00", align 1
@.str.92 = private unnamed_addr constant [8 x i8] c" 0x%02x\00", align 1
@.str.93 = private unnamed_addr constant [69 x i8] c"%d@%zu.%06zu:scsi_disk_new_request Command: lun=%d tag=0x%x data=%s\0A\00", align 1
@.str.94 = private unnamed_addr constant [56 x i8] c"scsi_disk_new_request Command: lun=%d tag=0x%x data=%s\0A\00", align 1

; Function Attrs: nounwind sspstrong uwtable
define internal zeroext i1 @qemu_loglevel_mask(i32 noundef %mask) #0 {
entry:
  %mask.addr = alloca i32, align 4
  store i32 %mask, ptr %mask.addr, align 4
  %0 = load i32, ptr @qemu_loglevel, align 4
  %1 = load i32, ptr %mask.addr, align 4
  %and = and i32 %0, %1
  %cmp = icmp ne i32 %and, 0
  ret i1 %cmp
}

; Function Attrs: nounwind sspstrong uwtable
define internal void @_nocheck__trace_scsi_disk_new_request(i32 noundef %lun, i32 noundef %tag, ptr noundef %line) #0 {
entry:
  %lun.addr = alloca i32, align 4
  %tag.addr = alloca i32, align 4
  %line.addr = alloca ptr, align 8
  %_now = alloca %struct.timeval, align 8
  store i32 %lun, ptr %lun.addr, align 4
  store i32 %tag, ptr %tag.addr, align 4
  store ptr %line, ptr %line.addr, align 8
  %0 = load i32, ptr @trace_events_enabled_count, align 4
  %tobool = icmp ne i32 %0, 0
  %lnot = xor i1 %tobool, true
  %lnot1 = xor i1 %lnot, true
  %lnot.ext = zext i1 %lnot1 to i32
  %conv = sext i32 %lnot.ext to i64
  %tobool2 = icmp ne i64 %conv, 0
  br i1 %tobool2, label %land.lhs.true, label %if.end11

land.lhs.true:                                    ; preds = %entry
  %1 = load i16, ptr @_TRACE_SCSI_DISK_NEW_REQUEST_DSTATE, align 2
  %conv3 = zext i16 %1 to i32
  %tobool4 = icmp ne i32 %conv3, 0
  br i1 %tobool4, label %land.lhs.true5, label %if.end11

land.lhs.true5:                                   ; preds = %land.lhs.true
  %call = call zeroext i1 @qemu_loglevel_mask(i32 noundef 32768)
  br i1 %call, label %if.then, label %if.end11

if.then:                                          ; preds = %land.lhs.true5
  %2 = load i8, ptr @message_with_timestamp, align 1
  %tobool7 = trunc i8 %2 to i1
  br i1 %tobool7, label %if.then8, label %if.else

if.then8:                                         ; preds = %if.then
  %call9 = call i32 @gettimeofday(ptr noundef %_now, ptr noundef null) #13
  %call10 = call i32 @qemu_get_thread_id()
  %tv_sec = getelementptr inbounds %struct.timeval, ptr %_now, i32 0, i32 0
  %3 = load i64, ptr %tv_sec, align 8
  %tv_usec = getelementptr inbounds %struct.timeval, ptr %_now, i32 0, i32 1
  %4 = load i64, ptr %tv_usec, align 8
  %5 = load i32, ptr %lun.addr, align 4
  %6 = load i32, ptr %tag.addr, align 4
  %7 = load ptr, ptr %line.addr, align 8
  call void (ptr, ...) @qemu_log(ptr noundef @.str.93, i32 noundef %call10, i64 noundef %3, i64 noundef %4, i32 noundef %5, i32 noundef %6, ptr noundef %7)
  br label %if.end

if.else:                                          ; preds = %if.then
  %8 = load i32, ptr %lun.addr, align 4
  %9 = load i32, ptr %tag.addr, align 4
  %10 = load ptr, ptr %line.addr, align 8
  call void (ptr, ...) @qemu_log(ptr noundef @.str.94, i32 noundef %8, i32 noundef %9, ptr noundef %10)
  br label %if.end

if.end:                                           ; preds = %if.else, %if.then8
  br label %if.end11

if.end11:                                         ; preds = %if.end, %land.lhs.true5, %land.lhs.true, %entry
  ret void
}

; Function Attrs: nounwind sspstrong uwtable
define internal void @trace_scsi_disk_new_request(i32 noundef %lun, i32 noundef %tag, ptr noundef %line) #0 {
entry:
  %lun.addr = alloca i32, align 4
  %tag.addr = alloca i32, align 4
  %line.addr = alloca ptr, align 8
  store i32 %lun, ptr %lun.addr, align 4
  store i32 %tag, ptr %tag.addr, align 4
  store ptr %line, ptr %line.addr, align 8
  %0 = load i32, ptr %lun.addr, align 4
  %1 = load i32, ptr %tag.addr, align 4
  %2 = load ptr, ptr %line.addr, align 8
  call void @_nocheck__trace_scsi_disk_new_request(i32 noundef %0, i32 noundef %1, ptr noundef %2)
  ret void
}

; Function Attrs: nounwind sspstrong uwtable
define internal void @scsi_disk_new_request_dump(i32 noundef %lun, i32 noundef %tag, ptr noundef %buf) #0 {
entry:
  %lun.addr = alloca i32, align 4
  %tag.addr = alloca i32, align 4
  %buf.addr = alloca ptr, align 8
  %i = alloca i32, align 4
  %len = alloca i32, align 4
  %line_buffer = alloca ptr, align 8
  %p = alloca ptr, align 8
  store i32 %lun, ptr %lun.addr, align 4
  store i32 %tag, ptr %tag.addr, align 4
  store ptr %buf, ptr %buf.addr, align 8
  %0 = load ptr, ptr %buf.addr, align 8
  %call = call i32 @scsi_cdb_length(ptr noundef %0)
  store i32 %call, ptr %len, align 4
  %1 = load i32, ptr %len, align 4
  %cmp = icmp sgt i32 %1, 0
  br i1 %cmp, label %land.lhs.true, label %if.else

land.lhs.true:                                    ; preds = %entry
  %2 = load i32, ptr %len, align 4
  %cmp1 = icmp sle i32 %2, 16
  br i1 %cmp1, label %if.then, label %if.else

if.then:                                          ; preds = %land.lhs.true
  br label %if.end

if.else:                                          ; preds = %land.lhs.true, %entry
  call void @__assert_fail(ptr noundef @.str.91, ptr noundef @.str.5, i32 noundef 2675, ptr noundef @__PRETTY_FUNCTION__.scsi_disk_new_request_dump) #11
  unreachable

if.end:                                           ; preds = %if.then
  %3 = load i32, ptr %len, align 4
  %mul = mul i32 %3, 5
  %add = add i32 %mul, 1
  %conv = sext i32 %add to i64
  %call2 = call noalias ptr @g_malloc(i64 noundef %conv) #12
  store ptr %call2, ptr %line_buffer, align 8
  store i32 0, ptr %i, align 4
  %4 = load ptr, ptr %line_buffer, align 8
  store ptr %4, ptr %p, align 8
  br label %for.cond

for.cond:                                         ; preds = %for.inc, %if.end
  %5 = load i32, ptr %i, align 4
  %6 = load i32, ptr %len, align 4
  %cmp3 = icmp slt i32 %5, %6
  br i1 %cmp3, label %for.body, label %for.end

for.body:                                         ; preds = %for.cond
  %7 = load ptr, ptr %p, align 8
  %8 = load ptr, ptr %buf.addr, align 8
  %9 = load i32, ptr %i, align 4
  %idxprom = sext i32 %9 to i64
  %arrayidx = getelementptr i8, ptr %8, i64 %idxprom
  %10 = load i8, ptr %arrayidx, align 1
  %conv5 = zext i8 %10 to i32
  %call6 = call i32 (ptr, ptr, ...) @sprintf(ptr noundef %7, ptr noundef @.str.92, i32 noundef %conv5) #13
  %11 = load ptr, ptr %p, align 8
  %idx.ext = sext i32 %call6 to i64
  %add.ptr = getelementptr i8, ptr %11, i64 %idx.ext
  store ptr %add.ptr, ptr %p, align 8
  br label %for.inc

for.inc:                                          ; preds = %for.body
  %12 = load i32, ptr %i, align 4
  %inc = add i32 %12, 1
  store i32 %inc, ptr %i, align 4
  br label %for.cond, !llvm.loop !5

for.end:                                          ; preds = %for.cond
  %13 = load i32, ptr %lun.addr, align 4
  %14 = load i32, ptr %tag.addr, align 4
  %15 = load ptr, ptr %line_buffer, align 8
  call void @trace_scsi_disk_new_request(i32 noundef %13, i32 noundef %14, ptr noundef %15)
  %16 = load ptr, ptr %line_buffer, align 8
  call void @g_free(ptr noundef %16)
  ret void
}

; Function Attrs: nounwind sspstrong uwtable
define internal ptr @scsi_new_request(ptr noundef %d, i32 noundef %tag, i32 noundef %lun, ptr noundef %buf, ptr noundef %hba_private) #0 {
entry:
  %d.addr = alloca ptr, align 8
  %tag.addr = alloca i32, align 4
  %lun.addr = alloca i32, align 4
  %buf.addr = alloca ptr, align 8
  %hba_private.addr = alloca ptr, align 8
  %s = alloca ptr, align 8
  %tmp = alloca ptr, align 8
  %__mptr = alloca ptr, align 8
  %tmp1 = alloca ptr, align 8
  %req = alloca ptr, align 8
  %ops = alloca ptr, align 8
  %command = alloca i8, align 1
  store ptr %d, ptr %d.addr, align 8
  store i32 %tag, ptr %tag.addr, align 4
  store i32 %lun, ptr %lun.addr, align 4
  store ptr %buf, ptr %buf.addr, align 8
  store ptr %hba_private, ptr %hba_private.addr, align 8
  %0 = load ptr, ptr %d.addr, align 8
  store ptr %0, ptr %__mptr, align 8
  %1 = load ptr, ptr %__mptr, align 8
  %add.ptr = getelementptr i8, ptr %1, i64 0
  store ptr %add.ptr, ptr %tmp1, align 8
  %2 = load ptr, ptr %tmp1, align 8
  store ptr %2, ptr %tmp, align 8
  %3 = load ptr, ptr %tmp, align 8
  store ptr %3, ptr %s, align 8
  %4 = load ptr, ptr %buf.addr, align 8
  %arrayidx = getelementptr i8, ptr %4, i64 0
  %5 = load i8, ptr %arrayidx, align 1
  store i8 %5, ptr %command, align 1
  %6 = load i8, ptr %command, align 1
  %idxprom = zext i8 %6 to i64
  %arrayidx2 = getelementptr [256 x ptr], ptr @scsi_disk_reqops_dispatch, i64 0, i64 %idxprom
  %7 = load ptr, ptr %arrayidx2, align 8
  store ptr %7, ptr %ops, align 8
  %8 = load ptr, ptr %ops, align 8
  %tobool = icmp ne ptr %8, null
  br i1 %tobool, label %if.end, label %if.then

if.then:                                          ; preds = %entry
  store ptr @scsi_disk_emulate_reqops, ptr %ops, align 8
  br label %if.end

if.end:                                           ; preds = %if.then, %entry
  %9 = load ptr, ptr %ops, align 8
  %10 = load ptr, ptr %s, align 8
  %qdev = getelementptr inbounds %struct.SCSIDiskState, ptr %10, i32 0, i32 0
  %11 = load i32, ptr %tag.addr, align 4
  %12 = load i32, ptr %lun.addr, align 4
  %13 = load ptr, ptr %hba_private.addr, align 8
  %call = call ptr @scsi_req_alloc(ptr noundef %9, ptr noundef %qdev, i32 noundef %11, i32 noundef %12, ptr noundef %13)
  store ptr %call, ptr %req, align 8
  %14 = load i32, ptr @trace_events_enabled_count, align 4
  %tobool3 = icmp ne i32 %14, 0
  %lnot = xor i1 %tobool3, true
  %lnot4 = xor i1 %lnot, true
  %lnot.ext = zext i1 %lnot4 to i32
  %conv = sext i32 %lnot.ext to i64
  %tobool5 = icmp ne i64 %conv, 0
  br i1 %tobool5, label %land.lhs.true, label %if.end9

land.lhs.true:                                    ; preds = %if.end
  %15 = load i16, ptr @_TRACE_SCSI_DISK_NEW_REQUEST_DSTATE, align 2
  %conv6 = zext i16 %15 to i32
  %tobool7 = icmp ne i32 %conv6, 0
  br i1 %tobool7, label %if.then8, label %if.end9

if.then8:                                         ; preds = %land.lhs.true
  %16 = load i32, ptr %lun.addr, align 4
  %17 = load i32, ptr %tag.addr, align 4
  %18 = load ptr, ptr %buf.addr, align 8
  call void @scsi_disk_new_request_dump(i32 noundef %16, i32 noundef %17, ptr noundef %18)
  br label %if.end9

if.end9:                                          ; preds = %if.then8, %land.lhs.true, %if.end
  %19 = load ptr, ptr %req, align 8
  ret ptr %19
}