; Function Attrs: nounwind sspstrong uwtable
define internal ptr @scsi_new_request(ptr noundef %d, i32 noundef %tag, i32 noundef %lun, ptr noundef %buf, ptr noundef %hba_private) #0 {
entry:
  %_now.i.i.i = alloca %struct.timeval, align 8
  %0 = load i8, ptr %buf, align 1
  %idxprom = zext i8 %0 to i64
  %arrayidx2 = getelementptr [256 x ptr], ptr @scsi_disk_reqops_dispatch, i64 0, i64 %idxprom
  %1 = load ptr, ptr %arrayidx2, align 8
  %tobool.not = icmp eq ptr %1, null
  %spec.store.select = select i1 %tobool.not, ptr @scsi_disk_emulate_reqops, ptr %1
  %call = tail call ptr @scsi_req_alloc(ptr noundef nonnull %spec.store.select, ptr noundef %d, i32 noundef %tag, i32 noundef %lun, ptr noundef %hba_private) #18
  %2 = load i32, ptr @trace_events_enabled_count, align 4
  %tobool3 = icmp ne i32 %2, 0
  %3 = load i16, ptr @_TRACE_SCSI_DISK_NEW_REQUEST_DSTATE, align 2
  %tobool7 = icmp ne i16 %3, 0
  %or.cond = select i1 %tobool3, i1 %tobool7, i1 false
  br i1 %or.cond, label %if.then8, label %if.end9

if.then8:                                         ; preds = %entry
  %call.i = tail call i32 @scsi_cdb_length(ptr noundef nonnull %buf) #18
  %4 = add i32 %call.i, -1
  %or.cond.i = icmp ult i32 %4, 16
  br i1 %or.cond.i, label %for.body.preheader.i, label %if.else.i

if.else.i:                                        ; preds = %if.then8
  tail call void @__assert_fail(ptr noundef nonnull @.str.91, ptr noundef nonnull @.str.5, i32 noundef 2675, ptr noundef nonnull @__PRETTY_FUNCTION__.scsi_disk_new_request_dump) #19
  unreachable

for.body.preheader.i:                             ; preds = %if.then8
  %mul.i = mul nuw nsw i32 %call.i, 5
  %add.i = add nuw nsw i32 %mul.i, 1
  %conv.i = zext nneg i32 %add.i to i64
  %call2.i = tail call noalias ptr @g_malloc(i64 noundef %conv.i) #20
  %wide.trip.count.i = zext nneg i32 %call.i to i64
  br label %for.body.i

for.body.i:                                       ; preds = %for.body.i, %for.body.preheader.i
  %indvars.iv.i = phi i64 [ 0, %for.body.preheader.i ], [ %indvars.iv.next.i, %for.body.i ]
  %p.012.i = phi ptr [ %call2.i, %for.body.preheader.i ], [ %add.ptr.i, %for.body.i ]
  %arrayidx.i = getelementptr i8, ptr %buf, i64 %indvars.iv.i
  %5 = load i8, ptr %arrayidx.i, align 1
  %conv5.i = zext i8 %5 to i32
  %call6.i = tail call i32 (ptr, ptr, ...) @sprintf(ptr noundef nonnull dereferenceable(1) %p.012.i, ptr noundef nonnull dereferenceable(1) @.str.92, i32 noundef %conv5.i) #18
  %idx.ext.i = sext i32 %call6.i to i64
  %add.ptr.i = getelementptr i8, ptr %p.012.i, i64 %idx.ext.i
  %indvars.iv.next.i = add nuw nsw i64 %indvars.iv.i, 1
  %exitcond.not.i = icmp eq i64 %indvars.iv.next.i, %wide.trip.count.i
  br i1 %exitcond.not.i, label %for.end.i, label %for.body.i, !llvm.loop !5

for.end.i:                                        ; preds = %for.body.i
  call void @llvm.lifetime.start.p0(i64 16, ptr nonnull %_now.i.i.i)
  %6 = load i32, ptr @trace_events_enabled_count, align 4
  %tobool.i.i.i = icmp ne i32 %6, 0
  %7 = load i16, ptr @_TRACE_SCSI_DISK_NEW_REQUEST_DSTATE, align 2
  %tobool4.i.i.i = icmp ne i16 %7, 0
  %or.cond.i.i.i = select i1 %tobool.i.i.i, i1 %tobool4.i.i.i, i1 false
  br i1 %or.cond.i.i.i, label %land.lhs.true5.i.i.i, label %scsi_disk_new_request_dump.exit

land.lhs.true5.i.i.i:                             ; preds = %for.end.i
  %8 = load i32, ptr @qemu_loglevel, align 4
  %and.i.i.i.i = and i32 %8, 32768
  %cmp.i.not.i.i.i = icmp eq i32 %and.i.i.i.i, 0
  br i1 %cmp.i.not.i.i.i, label %scsi_disk_new_request_dump.exit, label %if.then.i.i.i

if.then.i.i.i:                                    ; preds = %land.lhs.true5.i.i.i
  %9 = load i8, ptr @message_with_timestamp, align 1
  %tobool7.i.i.i = trunc i8 %9 to i1
  br i1 %tobool7.i.i.i, label %if.then8.i.i.i, label %if.else.i.i.i

if.then8.i.i.i:                                   ; preds = %if.then.i.i.i
  %call9.i.i.i = call i32 @gettimeofday(ptr noundef nonnull %_now.i.i.i, ptr noundef null) #18
  %call10.i.i.i = tail call i32 @qemu_get_thread_id() #18
  %10 = load i64, ptr %_now.i.i.i, align 8
  %tv_usec.i.i.i = getelementptr inbounds nuw i8, ptr %_now.i.i.i, i64 8
  %11 = load i64, ptr %tv_usec.i.i.i, align 8
  tail call void (ptr, ...) @qemu_log(ptr noundef nonnull @.str.93, i32 noundef %call10.i.i.i, i64 noundef %10, i64 noundef %11, i32 noundef %lun, i32 noundef %tag, ptr noundef %call2.i) #18
  br label %scsi_disk_new_request_dump.exit

if.else.i.i.i:                                    ; preds = %if.then.i.i.i
  tail call void (ptr, ...) @qemu_log(ptr noundef nonnull @.str.94, i32 noundef %lun, i32 noundef %tag, ptr noundef %call2.i) #18
  br label %scsi_disk_new_request_dump.exit

scsi_disk_new_request_dump.exit:                  ; preds = %for.end.i, %land.lhs.true5.i.i.i, %if.then8.i.i.i, %if.else.i.i.i
  call void @llvm.lifetime.end.p0(i64 16, ptr nonnull %_now.i.i.i)
  tail call void @g_free(ptr noundef %call2.i) #18
  br label %if.end9

if.end9:                                          ; preds = %scsi_disk_new_request_dump.exit, %entry
  ret ptr %call
}